target datalayout = "e-m:e-p270:32:32-p271:32:32-p272:64:64-i64:64-i128:128-f80:128-n8:16:32:64-S128"
target triple = "x86_64-pc-linux-gnu"

%"class.gmx::SelectionParserSymbol" = type { %"class.std::unique_ptr" }
%"class.std::unique_ptr" = type { %"struct.std::__uniq_ptr_data" }
%"struct.std::__uniq_ptr_data" = type { %"class.std::__uniq_ptr_impl" }
%"class.std::__uniq_ptr_impl" = type { %"class.std::tuple" }
%"class.std::tuple" = type { %"struct.std::_Tuple_impl" }
%"struct.std::_Tuple_impl" = type { %"struct.std::_Head_base.1" }
%"struct.std::_Head_base.1" = type { ptr }
%"class.gmx::SelectionParserSymbol::Impl" = type { %"class.std::__cxx11::basic_string", i32, ptr, %"class.std::shared_ptr" }
%"class.std::__cxx11::basic_string" = type { %"struct.std::__cxx11::basic_string<char>::_Alloc_hider", i64, %union.anon }
%"struct.std::__cxx11::basic_string<char>::_Alloc_hider" = type { ptr }
%union.anon = type { i64, [8 x i8] }
%"class.std::shared_ptr" = type { %"class.std::__shared_ptr" }
%"class.std::__shared_ptr" = type { ptr, %"class.std::__shared_count" }
%"class.std::__shared_count" = type { ptr }
%class.anon = type { i8 }

@.str = private unnamed_addr constant [23 x i8] c"type() == MethodSymbol\00", align 1
@.str.1 = private unnamed_addr constant [56 x i8] c"Attempting to get method handle for a non-method symbol\00", align 1
@"__PRETTY_FUNCTION__._ZZNK3gmx21SelectionParserSymbol11methodValueEvENK3$_0clEv" = private unnamed_addr constant [86 x i8] c"auto gmx::SelectionParserSymbol::methodValue()::(anonymous class)::operator()() const\00", align 1
@.str.2 = private unnamed_addr constant [126 x i8] c"generated/home/dtcxzyw/WorkSpace/Projects/compilers/llvm-opt-benchmark/bench/gromacs/gromacs/src/gromacs/selection/symrec.cpp\00", align 1

; Function Attrs: mustprogress nounwind uwtable
define linkonce_odr noundef nonnull align 8 dereferenceable(8) ptr @_ZNSt10_Head_baseILm0EPN3gmx21SelectionParserSymbol4ImplELb0EE7_M_headERKS4_(ptr noundef nonnull align 8 dereferenceable(8) %0) #0 comdat align 2 {
  %2 = alloca ptr, align 8
  store ptr %0, ptr %2, align 8
  %3 = load ptr, ptr %2, align 8
  %4 = getelementptr inbounds %"struct.std::_Head_base.1", ptr %3, i32 0, i32 0
  ret ptr %4
}

; Function Attrs: mustprogress nounwind uwtable
define linkonce_odr noundef nonnull align 8 dereferenceable(8) ptr @_ZNSt11_Tuple_implILm0EJPN3gmx21SelectionParserSymbol4ImplESt14default_deleteIS2_EEE7_M_headERKS6_(ptr noundef nonnull align 8 dereferenceable(8) %0) #0 comdat align 2 {
  %2 = alloca ptr, align 8
  store ptr %0, ptr %2, align 8
  %3 = load ptr, ptr %2, align 8
  %4 = call noundef nonnull align 8 dereferenceable(8) ptr @_ZNSt10_Head_baseILm0EPN3gmx21SelectionParserSymbol4ImplELb0EE7_M_headERKS4_(ptr noundef nonnull align 8 dereferenceable(8) %3) #11
  ret ptr %4
}

; Function Attrs: mustprogress nounwind uwtable
define linkonce_odr noundef nonnull align 8 dereferenceable(8) ptr @_ZSt12__get_helperILm0EPN3gmx21SelectionParserSymbol4ImplEJSt14default_deleteIS2_EEERKT0_RKSt11_Tuple_implIXT_EJS6_DpT1_EE(ptr noundef nonnull align 8 dereferenceable(8) %0) #0 comdat {
  %2 = alloca ptr, align 8
  store ptr %0, ptr %2, align 8
  %3 = load ptr, ptr %2, align 8
  %4 = call noundef nonnull align 8 dereferenceable(8) ptr @_ZNSt11_Tuple_implILm0EJPN3gmx21SelectionParserSymbol4ImplESt14default_deleteIS2_EEE7_M_headERKS6_(ptr noundef nonnull align 8 dereferenceable(8) %3) #11
  ret ptr %4
}

; Function Attrs: mustprogress nounwind uwtable
define linkonce_odr noundef nonnull align 8 dereferenceable(8) ptr @_ZSt3getILm0EJPN3gmx21SelectionParserSymbol4ImplESt14default_deleteIS2_EEERKNSt13tuple_elementIXT_ESt5tupleIJDpT0_EEE4typeERKSA_(ptr noundef nonnull align 8 dereferenceable(8) %0) #0 comdat {
  %2 = alloca ptr, align 8
  store ptr %0, ptr %2, align 8
  %3 = load ptr, ptr %2, align 8
  %4 = call noundef nonnull align 8 dereferenceable(8) ptr @_ZSt12__get_helperILm0EPN3gmx21SelectionParserSymbol4ImplEJSt14default_deleteIS2_EEERKT0_RKSt11_Tuple_implIXT_EJS6_DpT1_EE(ptr noundef nonnull align 8 dereferenceable(8) %3) #11
  ret ptr %4
}

; Function Attrs: mustprogress nounwind uwtable
define linkonce_odr noundef ptr @_ZNKSt15__uniq_ptr_implIN3gmx21SelectionParserSymbol4ImplESt14default_deleteIS2_EE6_M_ptrEv(ptr noundef nonnull align 8 dereferenceable(8) %0) #0 comdat align 2 {
  %2 = alloca ptr, align 8
  store ptr %0, ptr %2, align 8
  %3 = load ptr, ptr %2, align 8
  %4 = getelementptr inbounds %"class.std::__uniq_ptr_impl", ptr %3, i32 0, i32 0
  %5 = call noundef nonnull align 8 dereferenceable(8) ptr @_ZSt3getILm0EJPN3gmx21SelectionParserSymbol4ImplESt14default_deleteIS2_EEERKNSt13tuple_elementIXT_ESt5tupleIJDpT0_EEE4typeERKSA_(ptr noundef nonnull align 8 dereferenceable(8) %4) #11
  %6 = load ptr, ptr %5, align 8
  ret ptr %6
}

; Function Attrs: mustprogress nounwind uwtable
define linkonce_odr noundef ptr @_ZNKSt10unique_ptrIN3gmx21SelectionParserSymbol4ImplESt14default_deleteIS2_EE3getEv(ptr noundef nonnull align 8 dereferenceable(8) %0) #0 comdat align 2 {
  %2 = alloca ptr, align 8
  store ptr %0, ptr %2, align 8
  %3 = load ptr, ptr %2, align 8
  %4 = getelementptr inbounds %"class.std::unique_ptr", ptr %3, i32 0, i32 0
  %5 = call noundef ptr @_ZNKSt15__uniq_ptr_implIN3gmx21SelectionParserSymbol4ImplESt14default_deleteIS2_EE6_M_ptrEv(ptr noundef nonnull align 8 dereferenceable(8) %4) #11
  ret ptr %5
}

; Function Attrs: mustprogress nounwind uwtable
define linkonce_odr noundef ptr @_ZNKSt10unique_ptrIN3gmx21SelectionParserSymbol4ImplESt14default_deleteIS2_EEptEv(ptr noundef nonnull align 8 dereferenceable(8) %0) #0 comdat align 2 {
  %2 = alloca ptr, align 8
  store ptr %0, ptr %2, align 8
  %3 = load ptr, ptr %2, align 8
  %4 = call noundef ptr @_ZNKSt10unique_ptrIN3gmx21SelectionParserSymbol4ImplESt14default_deleteIS2_EE3getEv(ptr noundef nonnull align 8 dereferenceable(8) %3) #11
  ret ptr %4
}

; Function Attrs: mustprogress uwtable
define internal void @"_ZZNK3gmx21SelectionParserSymbol11methodValueEvENK3$_0clEv"(ptr noundef nonnull align 1 dereferenceable(1) %0) #1 align 2 {
  %2 = alloca ptr, align 8
  store ptr %0, ptr %2, align 8
  call void @_ZN3gmx8internal13assertHandlerEPKcS2_S2_S2_i(ptr noundef @.str, ptr noundef @.str.1, ptr noundef @"__PRETTY_FUNCTION__._ZZNK3gmx21SelectionParserSymbol11methodValueEvENK3$_0clEv", ptr noundef @.str.2, i32 noundef 111) #14
  unreachable
}

; Function Attrs: mustprogress nounwind uwtable
define noundef i32 @_ZNK3gmx21SelectionParserSymbol4typeEv(ptr noundef nonnull align 8 dereferenceable(8) %0) #0 align 2 {
  %2 = alloca ptr, align 8
  store ptr %0, ptr %2, align 8
  %3 = load ptr, ptr %2, align 8
  %4 = getelementptr inbounds %"class.gmx::SelectionParserSymbol", ptr %3, i32 0, i32 0
  %5 = call noundef ptr @_ZNKSt10unique_ptrIN3gmx21SelectionParserSymbol4ImplESt14default_deleteIS2_EEptEv(ptr noundef nonnull align 8 dereferenceable(8) %4) #11
  %6 = getelementptr inbounds %"class.gmx::SelectionParserSymbol::Impl", ptr %5, i32 0, i32 1
  %7 = load i32, ptr %6, align 8
  ret i32 %7
}

; Function Attrs: mustprogress uwtable
define noundef ptr @_ZNK3gmx21SelectionParserSymbol11methodValueEv(ptr noundef nonnull align 8 dereferenceable(8) %0) #1 align 2 {
  %2 = alloca ptr, align 8
  %3 = alloca %class.anon, align 1
  store ptr %0, ptr %2, align 8
  %4 = load ptr, ptr %2, align 8
  %5 = call noundef i32 @_ZNK3gmx21SelectionParserSymbol4typeEv(ptr noundef nonnull align 8 dereferenceable(8) %4)
  %6 = icmp eq i32 %5, 2
  br i1 %6, label %7, label %8

7:                                                ; preds = %1
  br label %9

8:                                                ; preds = %1
  call void @"_ZZNK3gmx21SelectionParserSymbol11methodValueEvENK3$_0clEv"(ptr noundef nonnull align 1 dereferenceable(1) %3)
  br label %9

9:                                                ; preds = %8, %7
  %10 = getelementptr inbounds %"class.gmx::SelectionParserSymbol", ptr %4, i32 0, i32 0
  %11 = call noundef ptr @_ZNKSt10unique_ptrIN3gmx21SelectionParserSymbol4ImplESt14default_deleteIS2_EEptEv(ptr noundef nonnull align 8 dereferenceable(8) %10) #11
  %12 = getelementptr inbounds %"class.gmx::SelectionParserSymbol::Impl", ptr %11, i32 0, i32 2
  %13 = load ptr, ptr %12, align 8
  ret ptr %13
}